target datalayout = "e-m:e-p270:32:32-p271:32:32-p272:64:64-i64:64-i128:128-f80:128-n8:16:32:64-S128"
target triple = "x86_64-pc-linux-gnu"

@.str.30 = private unnamed_addr constant [10 x i8] c"%7[A-Z]%n\00", align 1
@.str.31 = private unnamed_addr constant [6 x i8] c"c%d%n\00", align 1
@.str.32 = private unnamed_addr constant [4 x i8] c" %n\00", align 1

; Function Attrs: nounwind uwtable
define internal void @skip_spaces(ptr noundef %0) #1 {
  %2 = alloca ptr, align 8
  %3 = alloca i32, align 4
  store ptr %0, ptr %2, align 8, !tbaa !77
  call void @llvm.lifetime.start.p0(i64 4, ptr %3) #7
  store i32 0, ptr %3, align 4, !tbaa !30
  %4 = load ptr, ptr %2, align 8, !tbaa !77
  %5 = load ptr, ptr %4, align 8, !tbaa !29
  %6 = call i32 (ptr, ptr, ...) @__isoc99_sscanf(ptr noundef %5, ptr noundef @.str.32, ptr noundef %3) #7
  %7 = load i32, ptr %3, align 4, !tbaa !30
  %8 = load ptr, ptr %2, align 8, !tbaa !77
  %9 = load ptr, ptr %8, align 8, !tbaa !29
  %10 = sext i32 %7 to i64
  %11 = getelementptr inbounds i8, ptr %9, i64 %10
  store ptr %11, ptr %8, align 8, !tbaa !29
  call void @llvm.lifetime.end.p0(i64 4, ptr %3) #7
  ret void
}

; Function Attrs: nounwind uwtable
define internal i32 @parse_channel_name(ptr noundef %0, ptr noundef %1, ptr noundef %2) #1 {
  %4 = alloca i32, align 4
  %5 = alloca ptr, align 8
  %6 = alloca ptr, align 8
  %7 = alloca ptr, align 8
  %8 = alloca [8 x i8], align 1
  %9 = alloca i32, align 4
  %10 = alloca i32, align 4
  %11 = alloca i32, align 4
  store ptr %0, ptr %5, align 8, !tbaa !77
  store ptr %1, ptr %6, align 8, !tbaa !78
  store ptr %2, ptr %7, align 8, !tbaa !78
  call void @llvm.lifetime.start.p0(i64 8, ptr %8) #7
  call void @llvm.lifetime.start.p0(i64 4, ptr %9) #7
  call void @llvm.lifetime.start.p0(i64 4, ptr %10) #7
  store i32 0, ptr %10, align 4, !tbaa !30
  %12 = load ptr, ptr %5, align 8, !tbaa !77
  call void @skip_spaces(ptr noundef %12)
  %13 = load ptr, ptr %5, align 8, !tbaa !77
  %14 = load ptr, ptr %13, align 8, !tbaa !29
  %15 = getelementptr inbounds [8 x i8], ptr %8, i64 0, i64 0
  %16 = call i32 (ptr, ptr, ...) @__isoc99_sscanf(ptr noundef %14, ptr noundef @.str.30, ptr noundef %15, ptr noundef %9) #7
  %17 = icmp ne i32 %16, 0
  br i1 %17, label %18, label %34

18:                                               ; preds = %3
  %19 = getelementptr inbounds [8 x i8], ptr %8, i64 0, i64 0
  %20 = call i32 @av_channel_from_string(ptr noundef %19)
  store i32 %20, ptr %10, align 4, !tbaa !30
  %21 = load i32, ptr %10, align 4, !tbaa !30
  %22 = icmp slt i32 %21, 0
  br i1 %22, label %23, label %25

23:                                               ; preds = %18
  %24 = load i32, ptr %10, align 4, !tbaa !30
  store i32 %24, ptr %4, align 4
  store i32 1, ptr %11, align 4
  br label %55

25:                                               ; preds = %18
  %26 = load i32, ptr %10, align 4, !tbaa !30
  %27 = load ptr, ptr %6, align 8, !tbaa !78
  store i32 %26, ptr %27, align 4, !tbaa !30
  %28 = load ptr, ptr %7, align 8, !tbaa !78
  store i32 1, ptr %28, align 4, !tbaa !30
  %29 = load i32, ptr %9, align 4, !tbaa !30
  %30 = load ptr, ptr %5, align 8, !tbaa !77
  %31 = load ptr, ptr %30, align 8, !tbaa !29
  %32 = sext i32 %29 to i64
  %33 = getelementptr inbounds i8, ptr %31, i64 %32
  store ptr %33, ptr %30, align 8, !tbaa !29
  store i32 0, ptr %4, align 4
  store i32 1, ptr %11, align 4
  br label %55

34:                                               ; preds = %3
  %35 = load ptr, ptr %5, align 8, !tbaa !77
  %36 = load ptr, ptr %35, align 8, !tbaa !29
  %37 = call i32 (ptr, ptr, ...) @__isoc99_sscanf(ptr noundef %36, ptr noundef @.str.31, ptr noundef %10, ptr noundef %9) #7
  %38 = icmp ne i32 %37, 0
  br i1 %38, label %39, label %54

39:                                               ; preds = %34
  %40 = load i32, ptr %10, align 4, !tbaa !30
  %41 = icmp sge i32 %40, 0
  br i1 %41, label %42, label %54

42:                                               ; preds = %39
  %43 = load i32, ptr %10, align 4, !tbaa !30
  %44 = icmp slt i32 %43, 64
  br i1 %44, label %45, label %54

45:                                               ; preds = %42
  %46 = load i32, ptr %10, align 4, !tbaa !30
  %47 = load ptr, ptr %6, align 8, !tbaa !78
  store i32 %46, ptr %47, align 4, !tbaa !30
  %48 = load ptr, ptr %7, align 8, !tbaa !78
  store i32 0, ptr %48, align 4, !tbaa !30
  %49 = load i32, ptr %9, align 4, !tbaa !30
  %50 = load ptr, ptr %5, align 8, !tbaa !77
  %51 = load ptr, ptr %50, align 8, !tbaa !29
  %52 = sext i32 %49 to i64
  %53 = getelementptr inbounds i8, ptr %51, i64 %52
  store ptr %53, ptr %50, align 8, !tbaa !29
  store i32 0, ptr %4, align 4
  store i32 1, ptr %11, align 4
  br label %55

54:                                               ; preds = %42, %39, %34
  store i32 -22, ptr %4, align 4
  store i32 1, ptr %11, align 4
  br label %55

55:                                               ; preds = %54, %45, %25, %23
  call void @llvm.lifetime.end.p0(i64 4, ptr %10) #7
  call void @llvm.lifetime.end.p0(i64 4, ptr %9) #7
  call void @llvm.lifetime.end.p0(i64 8, ptr %8) #7
  %56 = load i32, ptr %4, align 4
  ret i32 %56
}