; Function Attrs: nounwind uwtable
define internal fastcc range(i32 -2147483648, 1) i32 @parse_channel_name(ptr noundef nonnull captures(none) %0, ptr noundef nonnull writeonly captures(none) %1, ptr noundef nonnull writeonly captures(none) %2) unnamed_addr #1 {
  %4 = alloca i32, align 4
  %5 = alloca [8 x i8], align 1
  %6 = alloca i32, align 4
  %7 = alloca i32, align 4
  call void @llvm.lifetime.start.p0(i64 8, ptr nonnull %5) #8
  call void @llvm.lifetime.start.p0(i64 4, ptr nonnull %6) #8
  call void @llvm.lifetime.start.p0(i64 4, ptr nonnull %7) #8
  store i32 0, ptr %7, align 4, !tbaa !27
  call void @llvm.lifetime.start.p0(i64 4, ptr nonnull %4) #8
  store i32 0, ptr %4, align 4, !tbaa !27
  %8 = load ptr, ptr %0, align 8, !tbaa !26
  %9 = call i32 (ptr, ptr, ...) @__isoc99_sscanf(ptr noundef %8, ptr noundef nonnull @.str.32, ptr noundef nonnull %4) #8
  %10 = load i32, ptr %4, align 4, !tbaa !27
  %11 = load ptr, ptr %0, align 8, !tbaa !26
  %12 = sext i32 %10 to i64
  %13 = getelementptr inbounds i8, ptr %11, i64 %12
  store ptr %13, ptr %0, align 8, !tbaa !26
  call void @llvm.lifetime.end.p0(i64 4, ptr nonnull %4) #8
  %14 = call i32 (ptr, ptr, ...) @__isoc99_sscanf(ptr noundef %13, ptr noundef nonnull @.str.30, ptr noundef nonnull %5, ptr noundef nonnull %6) #8
  %.not = icmp eq i32 %14, 0
  br i1 %.not, label %18, label %15

15:                                               ; preds = %3
  %16 = call i32 @av_channel_from_string(ptr noundef nonnull %5) #8
  %17 = icmp slt i32 %16, 0
  br i1 %17, label %28, label %.sink.split

18:                                               ; preds = %3
  %19 = load ptr, ptr %0, align 8, !tbaa !26
  %20 = call i32 (ptr, ptr, ...) @__isoc99_sscanf(ptr noundef %19, ptr noundef nonnull @.str.31, ptr noundef nonnull %7, ptr noundef nonnull %6) #8
  %21 = icmp ne i32 %20, 0
  %22 = load i32, ptr %7, align 4
  %23 = icmp ult i32 %22, 64
  %or.cond3 = select i1 %21, i1 %23, i1 false
  br i1 %or.cond3, label %.sink.split, label %28

.sink.split:                                      ; preds = %18, %15
  %.sink16 = phi i32 [ %16, %15 ], [ %22, %18 ]
  %.sink = phi i32 [ 1, %15 ], [ 0, %18 ]
  store i32 %.sink16, ptr %1, align 4, !tbaa !27
  store i32 %.sink, ptr %2, align 4, !tbaa !27
  %24 = load i32, ptr %6, align 4, !tbaa !27
  %25 = load ptr, ptr %0, align 8, !tbaa !26
  %26 = sext i32 %24 to i64
  %27 = getelementptr inbounds i8, ptr %25, i64 %26
  store ptr %27, ptr %0, align 8, !tbaa !26
  br label %28

28:                                               ; preds = %.sink.split, %18, %15
  %.0 = phi i32 [ %16, %15 ], [ -22, %18 ], [ 0, %.sink.split ]
  call void @llvm.lifetime.end.p0(i64 4, ptr nonnull %7) #8
  call void @llvm.lifetime.end.p0(i64 4, ptr nonnull %6) #8
  call void @llvm.lifetime.end.p0(i64 8, ptr nonnull %5) #8
  ret i32 %.0
}